; Function Attrs: mustprogress uwtable
define i32 @cvSeqElemIdx(ptr noundef readonly %0, ptr noundef %1, ptr noundef writeonly %2) local_unnamed_addr #0 personality ptr @__gxx_personality_v0 {
  %4 = alloca %"class.std::__cxx11::basic_string", align 8
  %5 = alloca %"class.std::allocator", align 1
  %6 = icmp ne ptr %0, null
  %7 = icmp ne ptr %1, null
  %or.cond = and i1 %6, %7
  br i1 %or.cond, label %18, label %8

8:                                                ; preds = %3
  call void @llvm.lifetime.start.p0(i64 32, ptr nonnull %4) #11
  call void @llvm.lifetime.start.p0(i64 1, ptr nonnull %5) #11
  call void @_ZNSt7__cxx1112basic_stringIcSt11char_traitsIcESaIcEEC2EPKcRKS3_(ptr noundef nonnull align 8 dereferenceable(32) %4, ptr noundef nonnull @.str, ptr noundef nonnull align 1 dereferenceable(1) %5)
  invoke void @_ZN2cv5errorEiRKNSt7__cxx1112basic_stringIcSt11char_traitsIcESaIcEEEPKcS9_i(i32 noundef -27, ptr noundef nonnull align 8 dereferenceable(32) %4, ptr noundef nonnull @__func__.cvSeqElemIdx, ptr noundef nonnull @.str.1, i32 noundef 490) #12
          to label %9 unwind label %10

9:                                                ; preds = %8
  unreachable

10:                                               ; preds = %8
  %11 = landingpad { ptr, i32 }
          cleanup
  %12 = load ptr, ptr %4, align 8, !tbaa !3
  %13 = getelementptr inbounds nuw i8, ptr %4, i64 16
  %14 = icmp eq ptr %12, %13
  br i1 %14, label %_ZNKSt7__cxx1112basic_stringIcSt11char_traitsIcESaIcEE11_M_is_localEv.exit.thread.i.i, label %_ZNKSt7__cxx1112basic_stringIcSt11char_traitsIcESaIcEE11_M_is_localEv.exit.i.i

_ZNKSt7__cxx1112basic_stringIcSt11char_traitsIcESaIcEE11_M_is_localEv.exit.thread.i.i: ; preds = %10
  %15 = getelementptr inbounds nuw i8, ptr %4, i64 8
  %16 = load i64, ptr %15, align 8, !tbaa !11
  %17 = icmp ult i64 %16, 16
  call void @llvm.assume(i1 %17)
  br label %_ZNSt7__cxx1112basic_stringIcSt11char_traitsIcESaIcEED2Ev.exit

_ZNKSt7__cxx1112basic_stringIcSt11char_traitsIcESaIcEE11_M_is_localEv.exit.i.i: ; preds = %10
  call void @_ZdlPv(ptr noundef %12) #13
  br label %_ZNSt7__cxx1112basic_stringIcSt11char_traitsIcESaIcEED2Ev.exit

_ZNSt7__cxx1112basic_stringIcSt11char_traitsIcESaIcEED2Ev.exit: ; preds = %_ZNKSt7__cxx1112basic_stringIcSt11char_traitsIcESaIcEE11_M_is_localEv.exit.i.i, %_ZNKSt7__cxx1112basic_stringIcSt11char_traitsIcESaIcEE11_M_is_localEv.exit.thread.i.i
  call void @llvm.lifetime.end.p0(i64 1, ptr nonnull %5) #11
  call void @llvm.lifetime.end.p0(i64 32, ptr nonnull %4) #11
  resume { ptr, i32 } %11

18:                                               ; preds = %3
  %19 = getelementptr inbounds nuw i8, ptr %0, i64 88
  %20 = load ptr, ptr %19, align 8, !tbaa !43
  %21 = getelementptr inbounds nuw i8, ptr %0, i64 44
  %22 = load i32, ptr %21, align 4, !tbaa !39
  %23 = ptrtoint ptr %1 to i64
  br label %24

24:                                               ; preds = %60, %18
  %.030 = phi ptr [ %20, %18 ], [ %62, %60 ]
  %25 = getelementptr inbounds nuw i8, ptr %.030, i64 24
  %26 = load ptr, ptr %25, align 8, !tbaa !50
  %27 = ptrtoint ptr %26 to i64
  %28 = sub i64 %23, %27
  %29 = trunc i64 %28 to i32
  %30 = getelementptr inbounds nuw i8, ptr %.030, i64 20
  %31 = load i32, ptr %30, align 4, !tbaa !44
  %32 = mul nsw i32 %31, %22
  %33 = icmp ugt i32 %32, %29
  br i1 %33, label %34, label %60

34:                                               ; preds = %24
  %.not = icmp eq ptr %2, null
  br i1 %.not, label %36, label %35

35:                                               ; preds = %34
  store ptr %.030, ptr %2, align 8, !tbaa !51
  br label %36

36:                                               ; preds = %35, %34
  %37 = icmp slt i32 %22, 33
  br i1 %37, label %38, label %49

38:                                               ; preds = %36
  %39 = add nsw i32 %22, -1
  %40 = sext i32 %39 to i64
  %41 = shl nuw nsw i64 1, %40
  %42 = and i64 %41, 2147516555
  %.not39 = icmp eq i64 %42, 0
  br i1 %.not39, label %49, label %43

43:                                               ; preds = %38
  %44 = getelementptr inbounds [32 x i8], ptr @_ZL17icvPower2ShiftTab, i64 0, i64 %40
  %45 = load i8, ptr %44, align 1, !tbaa !52
  %46 = sext i8 %45 to i64
  %47 = and i64 %46, 4294967295
  %48 = lshr i64 %28, %47
  br label %52

49:                                               ; preds = %38, %36
  %50 = sext i32 %22 to i64
  %51 = udiv i64 %28, %50
  br label %52

52:                                               ; preds = %49, %43
  %.031.in = phi i64 [ %48, %43 ], [ %51, %49 ]
  %.031 = trunc i64 %.031.in to i32
  %53 = getelementptr inbounds nuw i8, ptr %.030, i64 16
  %54 = load i32, ptr %53, align 8, !tbaa !53
  %55 = load ptr, ptr %19, align 8, !tbaa !43
  %56 = getelementptr inbounds nuw i8, ptr %55, i64 16
  %57 = load i32, ptr %56, align 8, !tbaa !53
  %58 = add i32 %54, %.031
  %59 = sub i32 %58, %57
  br label %.loopexit

60:                                               ; preds = %24
  %61 = getelementptr inbounds nuw i8, ptr %.030, i64 8
  %62 = load ptr, ptr %61, align 8, !tbaa !46
  %63 = icmp eq ptr %62, %20
  br i1 %63, label %.loopexit, label %24, !llvm.loop !54

.loopexit:                                        ; preds = %60, %52
  %.1 = phi i32 [ %59, %52 ], [ -1, %60 ]
  ret i32 %.1
}